target datalayout = "e-m:e-p270:32:32-p271:32:32-p272:64:64-i64:64-i128:128-f80:128-n8:16:32:64-S128"
target triple = "x86_64-pc-linux-gnu"

%class.vector.0 = type { ptr }
%class.obj_mark = type { [8 x i8], %class.bit_vector }
%class.bit_vector = type { i32, i32, ptr }
%class.ptr_vector = type { %class.vector.0 }
%"class.subterms::iterator" = type { i8, %class.ptr_vector, ptr, %class.obj_mark, ptr }

; Function Attrs: mustprogress nounwind uwtable
define linkonce_odr hidden noundef nonnull align 8 dereferenceable(8) ptr @_ZN6vectorIP4exprLb0EjE3getEj(ptr noundef nonnull align 8 dereferenceable(8) %0, i32 noundef %1) #6 comdat align 2 {
  %3 = alloca ptr, align 8
  %4 = alloca i32, align 4
  store ptr %0, ptr %3, align 8, !tbaa !50
  store i32 %1, ptr %4, align 4, !tbaa !17
  %5 = load ptr, ptr %3, align 8
  %6 = getelementptr inbounds nuw %class.vector.0, ptr %5, i32 0, i32 0
  %7 = load ptr, ptr %6, align 8, !tbaa !52
  %8 = load i32, ptr %4, align 4, !tbaa !17
  %9 = zext i32 %8 to i64
  %10 = getelementptr inbounds nuw ptr, ptr %7, i64 %9
  ret ptr %10
}

; Function Attrs: mustprogress nounwind uwtable
define linkonce_odr hidden noundef i32 @_ZNK6vectorIP4exprLb0EjE4sizeEv(ptr noundef nonnull align 8 dereferenceable(8) %0) #6 comdat align 2 {
  %2 = alloca i32, align 4
  %3 = alloca ptr, align 8
  store ptr %0, ptr %3, align 8, !tbaa !50
  %4 = load ptr, ptr %3, align 8
  %5 = getelementptr inbounds nuw %class.vector.0, ptr %4, i32 0, i32 0
  %6 = load ptr, ptr %5, align 8, !tbaa !52
  %7 = icmp eq ptr %6, null
  br i1 %7, label %8, label %9

8:                                                ; preds = %1
  store i32 0, ptr %2, align 4
  br label %14

9:                                                ; preds = %1
  %10 = getelementptr inbounds nuw %class.vector.0, ptr %4, i32 0, i32 0
  %11 = load ptr, ptr %10, align 8, !tbaa !52
  %12 = getelementptr inbounds i32, ptr %11, i64 -1
  %13 = load i32, ptr %12, align 4, !tbaa !17
  store i32 %13, ptr %2, align 4
  br label %14

14:                                               ; preds = %9, %8
  %15 = load i32, ptr %2, align 4
  ret i32 %15
}

; Function Attrs: mustprogress uwtable
define hidden noundef zeroext i1 @_ZNK8subterms8iteratorneERKS0_(ptr noundef nonnull align 8 dereferenceable(56) %0, ptr noundef nonnull align 8 dereferenceable(56) %1) #4 align 2 {
  %3 = alloca i1, align 1
  %4 = alloca ptr, align 8
  %5 = alloca ptr, align 8
  %6 = alloca i32, align 4
  %7 = alloca i32, align 4
  store ptr %0, ptr %4, align 8, !tbaa !87
  store ptr %1, ptr %5, align 8, !tbaa !87
  %8 = load ptr, ptr %4, align 8
  %9 = load ptr, ptr %5, align 8, !tbaa !87
  %10 = getelementptr inbounds nuw %"class.subterms::iterator", ptr %9, i32 0, i32 2
  %11 = load ptr, ptr %10, align 8, !tbaa !94
  %12 = call noundef i32 @_ZNK6vectorIP4exprLb0EjE4sizeEv(ptr noundef nonnull align 8 dereferenceable(8) %11)
  %13 = getelementptr inbounds nuw %"class.subterms::iterator", ptr %8, i32 0, i32 2
  %14 = load ptr, ptr %13, align 8, !tbaa !94
  %15 = call noundef i32 @_ZNK6vectorIP4exprLb0EjE4sizeEv(ptr noundef nonnull align 8 dereferenceable(8) %14)
  %16 = icmp ne i32 %12, %15
  br i1 %16, label %17, label %18

17:                                               ; preds = %2
  store i1 true, ptr %3, align 1
  br label %45

18:                                               ; preds = %2
  call void @llvm.lifetime.start.p0(i64 4, ptr %6) #3
  %19 = getelementptr inbounds nuw %"class.subterms::iterator", ptr %8, i32 0, i32 2
  %20 = load ptr, ptr %19, align 8, !tbaa !94
  %21 = call noundef i32 @_ZNK6vectorIP4exprLb0EjE4sizeEv(ptr noundef nonnull align 8 dereferenceable(8) %20)
  store i32 %21, ptr %6, align 4, !tbaa !17
  br label %22

22:                                               ; preds = %41, %18
  %23 = load i32, ptr %6, align 4, !tbaa !17
  %24 = add i32 %23, -1
  store i32 %24, ptr %6, align 4, !tbaa !17
  %25 = icmp ugt i32 %23, 0
  br i1 %25, label %27, label %26

26:                                               ; preds = %22
  store i32 2, ptr %7, align 4
  br label %42

27:                                               ; preds = %22
  %28 = getelementptr inbounds nuw %"class.subterms::iterator", ptr %8, i32 0, i32 2
  %29 = load ptr, ptr %28, align 8, !tbaa !94
  %30 = load i32, ptr %6, align 4, !tbaa !17
  %31 = call noundef nonnull align 8 dereferenceable(8) ptr @_ZN6vectorIP4exprLb0EjE3getEj(ptr noundef nonnull align 8 dereferenceable(8) %29, i32 noundef %30)
  %32 = load ptr, ptr %31, align 8, !tbaa !3
  %33 = load ptr, ptr %5, align 8, !tbaa !87
  %34 = getelementptr inbounds nuw %"class.subterms::iterator", ptr %33, i32 0, i32 2
  %35 = load ptr, ptr %34, align 8, !tbaa !94
  %36 = load i32, ptr %6, align 4, !tbaa !17
  %37 = call noundef nonnull align 8 dereferenceable(8) ptr @_ZN6vectorIP4exprLb0EjE3getEj(ptr noundef nonnull align 8 dereferenceable(8) %35, i32 noundef %36)
  %38 = load ptr, ptr %37, align 8, !tbaa !3
  %39 = icmp ne ptr %32, %38
  br i1 %39, label %40, label %41

40:                                               ; preds = %27
  store i1 true, ptr %3, align 1
  store i32 1, ptr %7, align 4
  br label %42

41:                                               ; preds = %27
  br label %22, !llvm.loop !106

42:                                               ; preds = %40, %26
  call void @llvm.lifetime.end.p0(i64 4, ptr %6) #3
  %43 = load i32, ptr %7, align 4
  switch i32 %43, label %47 [
    i32 2, label %44
    i32 1, label %45
  ]

44:                                               ; preds = %42
  store i1 false, ptr %3, align 1
  br label %45

45:                                               ; preds = %44, %42, %17
  %46 = load i1, ptr %3, align 1
  ret i1 %46

47:                                               ; preds = %42
  unreachable
}