; Function Attrs: mustprogress nofree norecurse nosync nounwind willreturn memory(read, inaccessiblemem: none) uwtable
define hidden noundef zeroext i1 @_ZNK8subterms8iteratorneERKS0_(ptr noundef nonnull readonly align 8 captures(none) dereferenceable(56) %0, ptr noundef nonnull readonly align 8 captures(none) dereferenceable(56) %1) local_unnamed_addr #10 align 2 {
  %3 = getelementptr inbounds nuw i8, ptr %1, i64 16
  %4 = load ptr, ptr %3, align 8, !tbaa !97
  %5 = load ptr, ptr %4, align 8, !tbaa !58
  %6 = icmp eq ptr %5, null
  br i1 %6, label %_ZNK6vectorIP4exprLb0EjE4sizeEv.exit.thread, label %_ZNK6vectorIP4exprLb0EjE4sizeEv.exit

_ZNK6vectorIP4exprLb0EjE4sizeEv.exit:             ; preds = %2
  %7 = getelementptr inbounds i8, ptr %5, i64 -4
  %8 = load i32, ptr %7, align 4, !tbaa !56
  %9 = getelementptr inbounds nuw i8, ptr %0, i64 16
  %10 = load ptr, ptr %9, align 8, !tbaa !97
  %11 = load ptr, ptr %10, align 8, !tbaa !58
  %12 = icmp eq ptr %11, null
  br i1 %12, label %_ZNK6vectorIP4exprLb0EjE4sizeEv.exit12, label %_ZNK6vectorIP4exprLb0EjE4sizeEv.exit12.thread

_ZNK6vectorIP4exprLb0EjE4sizeEv.exit.thread:      ; preds = %2
  %13 = getelementptr inbounds nuw i8, ptr %0, i64 16
  %14 = load ptr, ptr %13, align 8, !tbaa !97
  %15 = load ptr, ptr %14, align 8, !tbaa !58
  %16 = icmp eq ptr %15, null
  br i1 %16, label %_ZNK6vectorIP4exprLb0EjE4sizeEv.exit14, label %_ZNK6vectorIP4exprLb0EjE4sizeEv.exit12.thread

_ZNK6vectorIP4exprLb0EjE4sizeEv.exit12:           ; preds = %_ZNK6vectorIP4exprLb0EjE4sizeEv.exit
  %.not = icmp eq i32 %8, 0
  br i1 %.not, label %_ZNK6vectorIP4exprLb0EjE4sizeEv.exit14, label %.loopexit

_ZNK6vectorIP4exprLb0EjE4sizeEv.exit12.thread:    ; preds = %_ZNK6vectorIP4exprLb0EjE4sizeEv.exit, %_ZNK6vectorIP4exprLb0EjE4sizeEv.exit.thread
  %17 = phi ptr [ %15, %_ZNK6vectorIP4exprLb0EjE4sizeEv.exit.thread ], [ %11, %_ZNK6vectorIP4exprLb0EjE4sizeEv.exit ]
  %.0.i19 = phi i32 [ 0, %_ZNK6vectorIP4exprLb0EjE4sizeEv.exit.thread ], [ %8, %_ZNK6vectorIP4exprLb0EjE4sizeEv.exit ]
  %18 = getelementptr inbounds i8, ptr %17, i64 -4
  %19 = load i32, ptr %18, align 4, !tbaa !56
  %.not16 = icmp eq i32 %.0.i19, %19
  br i1 %.not16, label %20, label %.loopexit

20:                                               ; preds = %_ZNK6vectorIP4exprLb0EjE4sizeEv.exit12.thread
  %21 = zext i32 %.0.i19 to i64
  br label %_ZNK6vectorIP4exprLb0EjE4sizeEv.exit14

_ZNK6vectorIP4exprLb0EjE4sizeEv.exit14:           ; preds = %_ZNK6vectorIP4exprLb0EjE4sizeEv.exit.thread, %_ZNK6vectorIP4exprLb0EjE4sizeEv.exit12, %20
  %22 = phi ptr [ %17, %20 ], [ null, %_ZNK6vectorIP4exprLb0EjE4sizeEv.exit12 ], [ null, %_ZNK6vectorIP4exprLb0EjE4sizeEv.exit.thread ]
  %.0.i13 = phi i64 [ %21, %20 ], [ 0, %_ZNK6vectorIP4exprLb0EjE4sizeEv.exit12 ], [ 0, %_ZNK6vectorIP4exprLb0EjE4sizeEv.exit.thread ]
  br label %23

23:                                               ; preds = %24, %_ZNK6vectorIP4exprLb0EjE4sizeEv.exit14
  %indvars.iv = phi i64 [ %25, %24 ], [ %.0.i13, %_ZNK6vectorIP4exprLb0EjE4sizeEv.exit14 ]
  %.not9.not.not.not = icmp ne i64 %indvars.iv, 0
  br i1 %.not9.not.not.not, label %24, label %.loopexit

24:                                               ; preds = %23
  %25 = add nsw i64 %indvars.iv, -1
  %26 = getelementptr inbounds nuw ptr, ptr %22, i64 %25
  %27 = load ptr, ptr %26, align 8, !tbaa !35
  %28 = getelementptr inbounds nuw ptr, ptr %5, i64 %25
  %29 = load ptr, ptr %28, align 8, !tbaa !35
  %.not10 = icmp eq ptr %27, %29
  br i1 %.not10, label %23, label %.loopexit, !llvm.loop !103

.loopexit:                                        ; preds = %23, %24, %_ZNK6vectorIP4exprLb0EjE4sizeEv.exit12.thread, %_ZNK6vectorIP4exprLb0EjE4sizeEv.exit12
  %.08 = phi i1 [ true, %_ZNK6vectorIP4exprLb0EjE4sizeEv.exit12 ], [ true, %_ZNK6vectorIP4exprLb0EjE4sizeEv.exit12.thread ], [ %.not9.not.not.not, %24 ], [ %.not9.not.not.not, %23 ]
  ret i1 %.08
}